target datalayout = "e-m:e-p270:32:32-p271:32:32-p272:64:64-i64:64-i128:128-f80:128-n8:16:32:64-S128"
target triple = "x86_64-pc-linux-gnu"

%"class.llvm::StringRef" = type { ptr, i64 }
%"struct.llvm::TypeSetByHwMode" = type { %"struct.llvm::InfoByHwMode", i32, i32 }
%"struct.llvm::InfoByHwMode" = type { %"class.std::map" }
%"class.std::map" = type { %"class.std::_Rb_tree" }
%"class.std::_Rb_tree" = type { %"struct.std::_Rb_tree<unsigned int, std::pair<const unsigned int, llvm::MachineValueTypeSet>, std::_Select1st<std::pair<const unsigned int, llvm::MachineValueTypeSet>>, std::less<unsigned int>>::_Rb_tree_impl" }
%"struct.std::_Rb_tree<unsigned int, std::pair<const unsigned int, llvm::MachineValueTypeSet>, std::_Select1st<std::pair<const unsigned int, llvm::MachineValueTypeSet>>, std::less<unsigned int>>::_Rb_tree_impl" = type { [8 x i8], %"struct.std::_Rb_tree_header" }
%"struct.std::_Rb_tree_header" = type { %"struct.std::_Rb_tree_node_base", i64 }
%"struct.std::_Rb_tree_node_base" = type { i32, ptr, ptr, ptr }
%"struct.llvm::TypeInfer" = type { ptr, i8, i8, %"struct.llvm::TypeSetByHwMode" }
%"class.llvm::TreePattern" = type { %"class.std::vector", %"class.llvm::StringMap", ptr, %"class.std::vector.41", ptr, i8, i8, %"class.llvm::StringMap.46", %"struct.llvm::TypeInfer" }
%"class.std::vector" = type { %"struct.std::_Vector_base" }
%"struct.std::_Vector_base" = type { %"struct.std::_Vector_base<llvm::IntrusiveRefCntPtr<llvm::TreePatternNode>, std::allocator<llvm::IntrusiveRefCntPtr<llvm::TreePatternNode>>>::_Vector_impl" }
%"struct.std::_Vector_base<llvm::IntrusiveRefCntPtr<llvm::TreePatternNode>, std::allocator<llvm::IntrusiveRefCntPtr<llvm::TreePatternNode>>>::_Vector_impl" = type { %"struct.std::_Vector_base<llvm::IntrusiveRefCntPtr<llvm::TreePatternNode>, std::allocator<llvm::IntrusiveRefCntPtr<llvm::TreePatternNode>>>::_Vector_impl_data" }
%"struct.std::_Vector_base<llvm::IntrusiveRefCntPtr<llvm::TreePatternNode>, std::allocator<llvm::IntrusiveRefCntPtr<llvm::TreePatternNode>>>::_Vector_impl_data" = type { ptr, ptr, ptr }
%"class.llvm::StringMap" = type { %"class.llvm::StringMapImpl" }
%"class.llvm::StringMapImpl" = type { ptr, i32, i32, i32, i32 }
%"class.std::vector.41" = type { %"struct.std::_Vector_base.42" }
%"struct.std::_Vector_base.42" = type { %"struct.std::_Vector_base<std::__cxx11::basic_string<char>, std::allocator<std::__cxx11::basic_string<char>>>::_Vector_impl" }
%"struct.std::_Vector_base<std::__cxx11::basic_string<char>, std::allocator<std::__cxx11::basic_string<char>>>::_Vector_impl" = type { %"struct.std::_Vector_base<std::__cxx11::basic_string<char>, std::allocator<std::__cxx11::basic_string<char>>>::_Vector_impl_data" }
%"struct.std::_Vector_base<std::__cxx11::basic_string<char>, std::allocator<std::__cxx11::basic_string<char>>>::_Vector_impl_data" = type { ptr, ptr, ptr }
%"class.llvm::StringMap.46" = type { %"class.llvm::StringMapImpl" }
%"class.llvm::TreePredicateFn" = type { ptr }

@.str.76 = private unnamed_addr constant [14 x i8] c"IsSignExtLoad\00", align 1

; Function Attrs: mustprogress nounwind uwtable
define linkonce_odr hidden noundef ptr @_ZNK4llvm11TreePattern9getRecordEv(ptr noundef nonnull align 8 dereferenceable(192) %0) #0 comdat align 2 {
  %2 = alloca ptr, align 8
  store ptr %0, ptr %2, align 8
  %3 = load ptr, ptr %2, align 8
  %4 = getelementptr inbounds nuw %"class.llvm::TreePattern", ptr %3, i32 0, i32 2
  %5 = load ptr, ptr %4, align 8
  ret ptr %5
}

; Function Attrs: mustprogress nounwind uwtable
define linkonce_odr hidden noundef ptr @_ZNK4llvm15TreePredicateFn20getOrigPatFragRecordEv(ptr noundef nonnull align 8 dereferenceable(8) %0) #0 comdat align 2 {
  %2 = alloca ptr, align 8
  store ptr %0, ptr %2, align 8
  %3 = load ptr, ptr %2, align 8
  %4 = getelementptr inbounds nuw %"class.llvm::TreePredicateFn", ptr %3, i32 0, i32 0
  %5 = load ptr, ptr %4, align 8
  ret ptr %5
}

; Function Attrs: mustprogress nounwind uwtable
define linkonce_odr hidden noundef i64 @_ZNSt11char_traitsIcE6lengthEPKc(ptr noundef %0) #0 comdat align 2 {
  %2 = alloca ptr, align 8
  store ptr %0, ptr %2, align 8
  %3 = load ptr, ptr %2, align 8
  %4 = call i64 @strlen(ptr noundef %3) #4
  ret i64 %4
}

; Function Attrs: mustprogress nounwind uwtable
define dso_local noundef zeroext i1 @_ZNK4llvm15TreePredicateFn28isPredefinedPredicateEqualToENS_9StringRefEb(ptr noundef nonnull align 8 dereferenceable(8) %0, ptr %1, i64 %2, i1 noundef zeroext %3) #0 align 2 {
  %5 = alloca i1, align 1
  %6 = alloca %"class.llvm::StringRef", align 8
  %7 = alloca ptr, align 8
  %8 = alloca i8, align 1
  %9 = alloca i8, align 1
  %10 = alloca i8, align 1
  %11 = alloca %"class.llvm::StringRef", align 8
  %12 = getelementptr inbounds nuw { ptr, i64 }, ptr %6, i32 0, i32 0
  store ptr %1, ptr %12, align 8
  %13 = getelementptr inbounds nuw { ptr, i64 }, ptr %6, i32 0, i32 1
  store i64 %2, ptr %13, align 8
  store ptr %0, ptr %7, align 8
  %14 = zext i1 %3 to i8
  store i8 %14, ptr %8, align 1
  %15 = load ptr, ptr %7, align 8
  %16 = call noundef ptr @_ZNK4llvm15TreePredicateFn20getOrigPatFragRecordEv(ptr noundef nonnull align 8 dereferenceable(8) %15)
  %17 = call noundef ptr @_ZNK4llvm11TreePattern9getRecordEv(ptr noundef nonnull align 8 dereferenceable(192) %16)
  call void @llvm.memcpy.p0.p0.i64(ptr align 8 %11, ptr align 8 %6, i64 16, i1 false)
  %18 = getelementptr inbounds nuw { ptr, i64 }, ptr %11, i32 0, i32 0
  %19 = load ptr, ptr %18, align 8
  %20 = getelementptr inbounds nuw { ptr, i64 }, ptr %11, i32 0, i32 1
  %21 = load i64, ptr %20, align 8
  %22 = call noundef zeroext i1 @_ZNK4llvm6Record20getValueAsBitOrUnsetENS_9StringRefERb(ptr noundef nonnull align 8 dereferenceable(192) %17, ptr %19, i64 %21, ptr noundef nonnull align 1 dereferenceable(1) %9)
  %23 = zext i1 %22 to i8
  store i8 %23, ptr %10, align 1
  %24 = load i8, ptr %9, align 1
  %25 = trunc i8 %24 to i1
  br i1 %25, label %26, label %27

26:                                               ; preds = %4
  store i1 false, ptr %5, align 1
  br label %35

27:                                               ; preds = %4
  %28 = load i8, ptr %10, align 1
  %29 = trunc i8 %28 to i1
  %30 = zext i1 %29 to i32
  %31 = load i8, ptr %8, align 1
  %32 = trunc i8 %31 to i1
  %33 = zext i1 %32 to i32
  %34 = icmp eq i32 %30, %33
  store i1 %34, ptr %5, align 1
  br label %35

35:                                               ; preds = %27, %26
  %36 = load i1, ptr %5, align 1
  ret i1 %36
}

; Function Attrs: mustprogress nounwind uwtable
define linkonce_odr hidden void @_ZN4llvm9StringRefC2EPKc(ptr noundef nonnull align 8 dereferenceable(16) %0, ptr noundef %1) unnamed_addr #0 comdat align 2 {
  %3 = alloca ptr, align 8
  %4 = alloca ptr, align 8
  store ptr %0, ptr %3, align 8
  store ptr %1, ptr %4, align 8
  %5 = load ptr, ptr %3, align 8
  %6 = getelementptr inbounds nuw %"class.llvm::StringRef", ptr %5, i32 0, i32 0
  %7 = load ptr, ptr %4, align 8
  store ptr %7, ptr %6, align 8
  %8 = getelementptr inbounds nuw %"class.llvm::StringRef", ptr %5, i32 0, i32 1
  %9 = load ptr, ptr %4, align 8
  %10 = icmp ne ptr %9, null
  br i1 %10, label %11, label %14

11:                                               ; preds = %2
  %12 = load ptr, ptr %4, align 8
  %13 = call noundef i64 @_ZNSt11char_traitsIcE6lengthEPKc(ptr noundef %12)
  br label %15

14:                                               ; preds = %2
  br label %15

15:                                               ; preds = %14, %11
  %16 = phi i64 [ %13, %11 ], [ 0, %14 ]
  store i64 %16, ptr %8, align 8
  ret void
}

; Function Attrs: mustprogress nounwind uwtable
define dso_local noundef zeroext i1 @_ZNK4llvm15TreePredicateFn13isSignExtLoadEv(ptr noundef nonnull align 8 dereferenceable(8) %0) #0 align 2 {
  %2 = alloca ptr, align 8
  %3 = alloca %"class.llvm::StringRef", align 8
  store ptr %0, ptr %2, align 8
  %4 = load ptr, ptr %2, align 8
  call void @_ZN4llvm9StringRefC2EPKc(ptr noundef nonnull align 8 dereferenceable(16) %3, ptr noundef @.str.76)
  %5 = getelementptr inbounds nuw { ptr, i64 }, ptr %3, i32 0, i32 0
  %6 = load ptr, ptr %5, align 8
  %7 = getelementptr inbounds nuw { ptr, i64 }, ptr %3, i32 0, i32 1
  %8 = load i64, ptr %7, align 8
  %9 = call noundef zeroext i1 @_ZNK4llvm15TreePredicateFn28isPredefinedPredicateEqualToENS_9StringRefEb(ptr noundef nonnull align 8 dereferenceable(8) %4, ptr %6, i64 %8, i1 noundef zeroext true)
  ret i1 %9
}